; Function Attrs: nounwind uwtable
define range(i32 0, 2) i32 @ossl_quic_channel_set_peer_addr(ptr noundef %0, ptr noundef %1) local_unnamed_addr #0 {
  %3 = getelementptr inbounds nuw i8, ptr %0, i64 1568
  %4 = load i64, ptr %3, align 8
  %5 = and i64 %4, 7
  %.not = icmp eq i64 %5, 0
  br i1 %.not, label %6, label %19

6:                                                ; preds = %2
  %7 = icmp eq ptr %1, null
  br i1 %7, label %11, label %8

8:                                                ; preds = %6
  %9 = tail call i32 @BIO_ADDR_family(ptr noundef nonnull %1) #15
  %10 = icmp eq i32 %9, 0
  br i1 %10, label %11, label %15

11:                                               ; preds = %8, %6
  %12 = getelementptr inbounds nuw i8, ptr %0, i64 104
  tail call void @BIO_ADDR_clear(ptr noundef nonnull %12) #15
  %13 = load i64, ptr %3, align 8
  %14 = and i64 %13, -549755813889
  br label %.sink.split

15:                                               ; preds = %8
  %16 = getelementptr inbounds nuw i8, ptr %0, i64 104
  tail call void @llvm.memcpy.p0.p0.i64(ptr noundef nonnull align 8 dereferenceable(112) %16, ptr noundef nonnull align 4 dereferenceable(112) %1, i64 112, i1 false), !tbaa.struct !172
  %17 = load i64, ptr %3, align 8
  %18 = or i64 %17, 549755813888
  br label %.sink.split

.sink.split:                                      ; preds = %11, %15
  %.sink = phi i64 [ %18, %15 ], [ %14, %11 ]
  store i64 %.sink, ptr %3, align 8
  br label %19

19:                                               ; preds = %.sink.split, %2
  %.0 = phi i32 [ 0, %2 ], [ 1, %.sink.split ]
  ret i32 %.0
}